target datalayout = "e-m:e-p270:32:32-p271:32:32-p272:64:64-i64:64-i128:128-f80:128-n8:16:32:64-S128"
target triple = "x86_64-pc-linux-gnu"

%struct.lua_State = type { i8, i8, i8, i8, i8, i8, i8, ptr, ptr, ptr, ptr, ptr, ptr, ptr, ptr, i32, i32, i16, i16, i32, ptr, ptr, ptr, ptr, ptr }
%struct.lua_Debug = type { ptr, ptr, ptr, ptr, i32, i32, i8, i8, i8, ptr, [256 x i8] }

@_ZZ14lua_debugtraceP9lua_StateE3buf = internal global [4096 x i8] zeroinitializer, align 16
@.str.13 = private unnamed_addr constant [4 x i8] c"sln\00", align 1
@.str.14 = private unnamed_addr constant [4 x i8] c":%d\00", align 1
@.str.15 = private unnamed_addr constant [11 x i8] c" function \00", align 1
@.str.16 = private unnamed_addr constant [2 x i8] c"\0A\00", align 1
@.str.17 = private unnamed_addr constant [18 x i8] c"... (+%d frames)\0A\00", align 1

; Function Attrs: mustprogress nounwind uwtable
define internal noundef i64 @_ZL6appendPcmmPKc(ptr noundef %0, i64 noundef %1, i64 noundef %2, ptr noundef %3) #2 {
  %5 = alloca ptr, align 8
  %6 = alloca i64, align 8
  %7 = alloca i64, align 8
  %8 = alloca ptr, align 8
  %9 = alloca i64, align 8
  %10 = alloca i64, align 8
  store ptr %0, ptr %5, align 8, !tbaa !49
  store i64 %1, ptr %6, align 8, !tbaa !111
  store i64 %2, ptr %7, align 8, !tbaa !111
  store ptr %3, ptr %8, align 8, !tbaa !49
  call void @llvm.lifetime.start.p0(i64 8, ptr %9) #11
  %11 = load ptr, ptr %8, align 8, !tbaa !49
  %12 = call i64 @strlen(ptr noundef %11) #13
  store i64 %12, ptr %9, align 8, !tbaa !111
  call void @llvm.lifetime.start.p0(i64 8, ptr %10) #11
  %13 = load i64, ptr %7, align 8, !tbaa !111
  %14 = load i64, ptr %9, align 8, !tbaa !111
  %15 = add i64 %13, %14
  %16 = load i64, ptr %6, align 8, !tbaa !111
  %17 = icmp uge i64 %15, %16
  br i1 %17, label %18, label %23

18:                                               ; preds = %4
  %19 = load i64, ptr %6, align 8, !tbaa !111
  %20 = load i64, ptr %7, align 8, !tbaa !111
  %21 = sub i64 %19, %20
  %22 = sub i64 %21, 1
  br label %25

23:                                               ; preds = %4
  %24 = load i64, ptr %9, align 8, !tbaa !111
  br label %25

25:                                               ; preds = %23, %18
  %26 = phi i64 [ %22, %18 ], [ %24, %23 ]
  store i64 %26, ptr %10, align 8, !tbaa !111
  %27 = load ptr, ptr %5, align 8, !tbaa !49
  %28 = load i64, ptr %7, align 8, !tbaa !111
  %29 = getelementptr inbounds nuw i8, ptr %27, i64 %28
  %30 = load ptr, ptr %8, align 8, !tbaa !49
  %31 = load i64, ptr %10, align 8, !tbaa !111
  call void @llvm.memcpy.p0.p0.i64(ptr align 1 %29, ptr align 1 %30, i64 %31, i1 false)
  %32 = load i64, ptr %7, align 8, !tbaa !111
  %33 = load i64, ptr %10, align 8, !tbaa !111
  %34 = add i64 %32, %33
  call void @llvm.lifetime.end.p0(i64 8, ptr %10) #11
  call void @llvm.lifetime.end.p0(i64 8, ptr %9) #11
  ret i64 %34
}

; Function Attrs: mustprogress uwtable
define dso_local noundef ptr @_Z14lua_debugtraceP9lua_State(ptr noundef %0) #0 {
  %2 = alloca ptr, align 8
  %3 = alloca i32, align 4
  %4 = alloca i32, align 4
  %5 = alloca i32, align 4
  %6 = alloca i64, align 8
  %7 = alloca %struct.lua_Debug, align 8
  %8 = alloca i32, align 4
  %9 = alloca [32 x i8], align 16
  %10 = alloca [32 x i8], align 16
  store ptr %0, ptr %2, align 8, !tbaa !4
  call void @llvm.lifetime.start.p0(i64 4, ptr %3) #11
  store i32 10, ptr %3, align 4, !tbaa !9
  call void @llvm.lifetime.start.p0(i64 4, ptr %4) #11
  store i32 10, ptr %4, align 4, !tbaa !9
  call void @llvm.lifetime.start.p0(i64 4, ptr %5) #11
  %11 = load ptr, ptr %2, align 8, !tbaa !4
  %12 = getelementptr inbounds nuw %struct.lua_State, ptr %11, i32 0, i32 10
  %13 = load ptr, ptr %12, align 8, !tbaa !11
  %14 = load ptr, ptr %2, align 8, !tbaa !4
  %15 = getelementptr inbounds nuw %struct.lua_State, ptr %14, i32 0, i32 14
  %16 = load ptr, ptr %15, align 8, !tbaa !22
  %17 = ptrtoint ptr %13 to i64
  %18 = ptrtoint ptr %16 to i64
  %19 = sub i64 %17, %18
  %20 = sdiv exact i64 %19, 40
  %21 = trunc i64 %20 to i32
  store i32 %21, ptr %5, align 4, !tbaa !9
  call void @llvm.lifetime.start.p0(i64 8, ptr %6) #11
  store i64 0, ptr %6, align 8, !tbaa !111
  call void @llvm.lifetime.start.p0(i64 312, ptr %7) #11
  call void @llvm.lifetime.start.p0(i64 4, ptr %8) #11
  store i32 0, ptr %8, align 4, !tbaa !9
  br label %22

22:                                               ; preds = %81, %1
  %23 = load ptr, ptr %2, align 8, !tbaa !4
  %24 = load i32, ptr %8, align 4, !tbaa !9
  %25 = call noundef i32 @_Z11lua_getinfoP9lua_StateiPKcP9lua_Debug(ptr noundef %23, i32 noundef %24, ptr noundef @.str.13, ptr noundef %7)
  %26 = icmp ne i32 %25, 0
  br i1 %26, label %28, label %27

27:                                               ; preds = %22
  call void @llvm.lifetime.end.p0(i64 4, ptr %8) #11
  br label %84

28:                                               ; preds = %22
  %29 = getelementptr inbounds nuw %struct.lua_Debug, ptr %7, i32 0, i32 2
  %30 = load ptr, ptr %29, align 8, !tbaa !61
  %31 = icmp ne ptr %30, null
  br i1 %31, label %32, label %37

32:                                               ; preds = %28
  %33 = load i64, ptr %6, align 8, !tbaa !111
  %34 = getelementptr inbounds nuw %struct.lua_Debug, ptr %7, i32 0, i32 3
  %35 = load ptr, ptr %34, align 8, !tbaa !65
  %36 = call noundef i64 @_ZL6appendPcmmPKc(ptr noundef @_ZZ14lua_debugtraceP9lua_StateE3buf, i64 noundef 4096, i64 noundef %33, ptr noundef %35)
  store i64 %36, ptr %6, align 8, !tbaa !111
  br label %37

37:                                               ; preds = %32, %28
  %38 = getelementptr inbounds nuw %struct.lua_Debug, ptr %7, i32 0, i32 5
  %39 = load i32, ptr %38, align 4, !tbaa !71
  %40 = icmp sgt i32 %39, 0
  br i1 %40, label %41, label %49

41:                                               ; preds = %37
  call void @llvm.lifetime.start.p0(i64 32, ptr %9) #11
  %42 = getelementptr inbounds [32 x i8], ptr %9, i64 0, i64 0
  %43 = getelementptr inbounds nuw %struct.lua_Debug, ptr %7, i32 0, i32 5
  %44 = load i32, ptr %43, align 4, !tbaa !71
  %45 = call i32 (ptr, i64, ptr, ...) @snprintf(ptr noundef %42, i64 noundef 32, ptr noundef @.str.14, i32 noundef %44) #11
  %46 = load i64, ptr %6, align 8, !tbaa !111
  %47 = getelementptr inbounds [32 x i8], ptr %9, i64 0, i64 0
  %48 = call noundef i64 @_ZL6appendPcmmPKc(ptr noundef @_ZZ14lua_debugtraceP9lua_StateE3buf, i64 noundef 4096, i64 noundef %46, ptr noundef %47)
  store i64 %48, ptr %6, align 8, !tbaa !111
  call void @llvm.lifetime.end.p0(i64 32, ptr %9) #11
  br label %49

49:                                               ; preds = %41, %37
  %50 = getelementptr inbounds nuw %struct.lua_Debug, ptr %7, i32 0, i32 0
  %51 = load ptr, ptr %50, align 8, !tbaa !76
  %52 = icmp ne ptr %51, null
  br i1 %52, label %53, label %60

53:                                               ; preds = %49
  %54 = load i64, ptr %6, align 8, !tbaa !111
  %55 = call noundef i64 @_ZL6appendPcmmPKc(ptr noundef @_ZZ14lua_debugtraceP9lua_StateE3buf, i64 noundef 4096, i64 noundef %54, ptr noundef @.str.15)
  store i64 %55, ptr %6, align 8, !tbaa !111
  %56 = load i64, ptr %6, align 8, !tbaa !111
  %57 = getelementptr inbounds nuw %struct.lua_Debug, ptr %7, i32 0, i32 0
  %58 = load ptr, ptr %57, align 8, !tbaa !76
  %59 = call noundef i64 @_ZL6appendPcmmPKc(ptr noundef @_ZZ14lua_debugtraceP9lua_StateE3buf, i64 noundef 4096, i64 noundef %56, ptr noundef %58)
  store i64 %59, ptr %6, align 8, !tbaa !111
  br label %60

60:                                               ; preds = %53, %49
  %61 = load i64, ptr %6, align 8, !tbaa !111
  %62 = call noundef i64 @_ZL6appendPcmmPKc(ptr noundef @_ZZ14lua_debugtraceP9lua_StateE3buf, i64 noundef 4096, i64 noundef %61, ptr noundef @.str.16)
  store i64 %62, ptr %6, align 8, !tbaa !111
  %63 = load i32, ptr %5, align 4, !tbaa !9
  %64 = icmp sgt i32 %63, 20
  br i1 %64, label %65, label %80

65:                                               ; preds = %60
  %66 = load i32, ptr %8, align 4, !tbaa !9
  %67 = icmp eq i32 %66, 9
  br i1 %67, label %68, label %80

68:                                               ; preds = %65
  call void @llvm.lifetime.start.p0(i64 32, ptr %10) #11
  %69 = getelementptr inbounds [32 x i8], ptr %10, i64 0, i64 0
  %70 = load i32, ptr %5, align 4, !tbaa !9
  %71 = sub nsw i32 %70, 10
  %72 = sub nsw i32 %71, 10
  %73 = call i32 (ptr, i64, ptr, ...) @snprintf(ptr noundef %69, i64 noundef 32, ptr noundef @.str.17, i32 noundef %72) #11
  %74 = load i64, ptr %6, align 8, !tbaa !111
  %75 = getelementptr inbounds [32 x i8], ptr %10, i64 0, i64 0
  %76 = call noundef i64 @_ZL6appendPcmmPKc(ptr noundef @_ZZ14lua_debugtraceP9lua_StateE3buf, i64 noundef 4096, i64 noundef %74, ptr noundef %75)
  store i64 %76, ptr %6, align 8, !tbaa !111
  %77 = load i32, ptr %5, align 4, !tbaa !9
  %78 = sub nsw i32 %77, 10
  %79 = sub nsw i32 %78, 1
  store i32 %79, ptr %8, align 4, !tbaa !9
  call void @llvm.lifetime.end.p0(i64 32, ptr %10) #11
  br label %80

80:                                               ; preds = %68, %65, %60
  br label %81

81:                                               ; preds = %80
  %82 = load i32, ptr %8, align 4, !tbaa !9
  %83 = add nsw i32 %82, 1
  store i32 %83, ptr %8, align 4, !tbaa !9
  br label %22, !llvm.loop !118

84:                                               ; preds = %27
  %85 = load i64, ptr %6, align 8, !tbaa !111
  %86 = getelementptr inbounds nuw [4096 x i8], ptr @_ZZ14lua_debugtraceP9lua_StateE3buf, i64 0, i64 %85
  store i8 0, ptr %86, align 1, !tbaa !37
  call void @llvm.lifetime.end.p0(i64 312, ptr %7) #11
  call void @llvm.lifetime.end.p0(i64 8, ptr %6) #11
  call void @llvm.lifetime.end.p0(i64 4, ptr %5) #11
  call void @llvm.lifetime.end.p0(i64 4, ptr %4) #11
  call void @llvm.lifetime.end.p0(i64 4, ptr %3) #11
  ret ptr @_ZZ14lua_debugtraceP9lua_StateE3buf
}