; Function Attrs: mustprogress uwtable
define dso_local noundef nonnull ptr @_Z14lua_debugtraceP9lua_State(ptr noundef %0) local_unnamed_addr #0 {
  %2 = alloca %struct.lua_Debug, align 8
  %3 = alloca [32 x i8], align 16
  %4 = alloca [32 x i8], align 16
  %5 = getelementptr inbounds nuw i8, ptr %0, i64 32
  %6 = load ptr, ptr %5, align 8, !tbaa !4
  %7 = getelementptr inbounds nuw i8, ptr %0, i64 64
  %8 = load ptr, ptr %7, align 8, !tbaa !19
  call void @llvm.lifetime.start.p0(i64 312, ptr nonnull %2) #16
  %9 = call noundef i32 @_Z11lua_getinfoP9lua_StateiPKcP9lua_Debug(ptr noundef %0, i32 noundef 0, ptr noundef nonnull @.str.13, ptr noundef nonnull %2)
  %.not21 = icmp eq i32 %9, 0
  br i1 %.not21, label %._crit_edge, label %.lr.ph

.lr.ph:                                           ; preds = %1
  %10 = ptrtoint ptr %6 to i64
  %11 = ptrtoint ptr %8 to i64
  %12 = sub i64 %10, %11
  %13 = sdiv exact i64 %12, 40
  %14 = trunc i64 %13 to i32
  %15 = getelementptr inbounds nuw i8, ptr %2, i64 16
  %16 = getelementptr inbounds nuw i8, ptr %2, i64 24
  %17 = getelementptr inbounds nuw i8, ptr %2, i64 36
  %18 = icmp sgt i32 %14, 20
  %19 = add nsw i32 %14, -20
  %20 = add nsw i32 %14, -11
  br label %22

._crit_edge:                                      ; preds = %78, %1
  %.016.lcssa = phi i64 [ 0, %1 ], [ %.4, %78 ]
  %21 = getelementptr inbounds nuw [4096 x i8], ptr @_ZZ14lua_debugtraceP9lua_StateE3buf, i64 0, i64 %.016.lcssa
  store i8 0, ptr %21, align 1, !tbaa !26
  call void @llvm.lifetime.end.p0(i64 312, ptr nonnull %2) #16
  ret ptr @_ZZ14lua_debugtraceP9lua_StateE3buf

22:                                               ; preds = %.lr.ph, %78
  %.023 = phi i32 [ 0, %.lr.ph ], [ %79, %78 ]
  %.01622 = phi i64 [ 0, %.lr.ph ], [ %.4, %78 ]
  %23 = load ptr, ptr %15, align 8, !tbaa !48
  %.not19 = icmp eq ptr %23, null
  br i1 %.not19, label %33, label %24

24:                                               ; preds = %22
  %25 = load ptr, ptr %16, align 8, !tbaa !52
  %26 = call i64 @strlen(ptr noundef nonnull readonly dereferenceable(1) %25) #17
  %27 = add i64 %26, %.01622
  %28 = icmp ugt i64 %27, 4095
  %29 = sub i64 4095, %.01622
  %30 = select i1 %28, i64 %29, i64 %26
  %31 = getelementptr inbounds nuw i8, ptr @_ZZ14lua_debugtraceP9lua_StateE3buf, i64 %.01622
  call void @llvm.memcpy.p0.p0.i64(ptr nonnull align 1 %31, ptr nonnull readonly align 1 %25, i64 %30, i1 false)
  %32 = add i64 %30, %.01622
  br label %33

33:                                               ; preds = %24, %22
  %.117 = phi i64 [ %32, %24 ], [ %.01622, %22 ]
  %34 = load i32, ptr %17, align 4, !tbaa !60
  %35 = icmp sgt i32 %34, 0
  br i1 %35, label %36, label %45

36:                                               ; preds = %33
  call void @llvm.lifetime.start.p0(i64 32, ptr nonnull %3) #16
  %37 = call i32 (ptr, i64, ptr, ...) @snprintf(ptr noundef nonnull dereferenceable(1) %3, i64 noundef 32, ptr noundef nonnull @.str.14, i32 noundef %34) #16
  %38 = call i64 @strlen(ptr noundef nonnull readonly dereferenceable(1) %3) #17
  %39 = add i64 %38, %.117
  %40 = icmp ugt i64 %39, 4095
  %41 = sub i64 4095, %.117
  %42 = select i1 %40, i64 %41, i64 %38
  %43 = getelementptr inbounds nuw i8, ptr @_ZZ14lua_debugtraceP9lua_StateE3buf, i64 %.117
  call void @llvm.memcpy.p0.p0.i64(ptr nonnull align 1 %43, ptr nonnull readonly align 16 %3, i64 %42, i1 false)
  %44 = add i64 %42, %.117
  call void @llvm.lifetime.end.p0(i64 32, ptr nonnull %3) #16
  br label %45

45:                                               ; preds = %36, %33
  %.2 = phi i64 [ %44, %36 ], [ %.117, %33 ]
  %46 = load ptr, ptr %2, align 8, !tbaa !66
  %.not20 = icmp eq ptr %46, null
  br i1 %.not20, label %61, label %47

47:                                               ; preds = %45
  %48 = add i64 %.2, -4086
  %49 = icmp ult i64 %48, -4096
  %50 = sub i64 4095, %.2
  %51 = select i1 %49, i64 %50, i64 10
  %52 = getelementptr inbounds nuw i8, ptr @_ZZ14lua_debugtraceP9lua_StateE3buf, i64 %.2
  call void @llvm.memcpy.p0.p0.i64(ptr nonnull align 1 %52, ptr nonnull align 1 @.str.15, i64 %51, i1 false)
  %53 = add i64 %51, %.2
  %54 = call i64 @strlen(ptr noundef nonnull readonly dereferenceable(1) %46) #17
  %55 = add i64 %54, %53
  %56 = icmp ugt i64 %55, 4095
  %57 = sub i64 4095, %53
  %58 = select i1 %56, i64 %57, i64 %54
  %59 = getelementptr inbounds nuw i8, ptr @_ZZ14lua_debugtraceP9lua_StateE3buf, i64 %53
  call void @llvm.memcpy.p0.p0.i64(ptr nonnull align 1 %59, ptr nonnull readonly align 1 %46, i64 %58, i1 false)
  %60 = add i64 %58, %53
  br label %61

61:                                               ; preds = %47, %45
  %.3 = phi i64 [ %60, %47 ], [ %.2, %45 ]
  %62 = add i64 %.3, -4095
  %63 = icmp ult i64 %62, -4096
  %64 = sub i64 4095, %.3
  %65 = select i1 %63, i64 %64, i64 1
  %66 = getelementptr inbounds nuw i8, ptr @_ZZ14lua_debugtraceP9lua_StateE3buf, i64 %.3
  call void @llvm.memcpy.p0.p0.i64(ptr nonnull align 1 %66, ptr nonnull align 1 @.str.16, i64 %65, i1 false)
  %67 = add i64 %65, %.3
  %68 = icmp eq i32 %.023, 9
  %or.cond = and i1 %18, %68
  br i1 %or.cond, label %69, label %78

69:                                               ; preds = %61
  call void @llvm.lifetime.start.p0(i64 32, ptr nonnull %4) #16
  %70 = call i32 (ptr, i64, ptr, ...) @snprintf(ptr noundef nonnull dereferenceable(1) %4, i64 noundef 32, ptr noundef nonnull @.str.17, i32 noundef %19) #16
  %71 = call i64 @strlen(ptr noundef nonnull readonly dereferenceable(1) %4) #17
  %72 = add i64 %71, %67
  %73 = icmp ugt i64 %72, 4095
  %74 = sub i64 4095, %67
  %75 = select i1 %73, i64 %74, i64 %71
  %76 = getelementptr inbounds nuw i8, ptr @_ZZ14lua_debugtraceP9lua_StateE3buf, i64 %67
  call void @llvm.memcpy.p0.p0.i64(ptr nonnull align 1 %76, ptr nonnull readonly align 16 %4, i64 %75, i1 false)
  %77 = add i64 %75, %67
  call void @llvm.lifetime.end.p0(i64 32, ptr nonnull %4) #16
  br label %78

78:                                               ; preds = %61, %69
  %.4 = phi i64 [ %77, %69 ], [ %67, %61 ]
  %.1 = phi i32 [ %20, %69 ], [ %.023, %61 ]
  %79 = add nsw i32 %.1, 1
  %80 = call noundef i32 @_Z11lua_getinfoP9lua_StateiPKcP9lua_Debug(ptr noundef %0, i32 noundef %79, ptr noundef nonnull @.str.13, ptr noundef nonnull %2)
  %.not = icmp eq i32 %80, 0
  br i1 %.not, label %._crit_edge, label %22, !llvm.loop !101
}